; Function Attrs: mustprogress uwtable
define void @_Z32_gmx_sel_evaluate_subexpr_simpleP18gmx_sel_evaluate_tRKSt10shared_ptrIN3gmx20SelectionTreeElementEEP15gmx_ana_index_t(ptr noundef %0, ptr nocapture noundef nonnull readonly align 8 dereferenceable(16) %1, ptr noundef %2) #2 {
  %4 = load ptr, ptr %1, align 8
  %5 = getelementptr inbounds i8, ptr %4, i64 96
  %6 = load ptr, ptr %5, align 8
  %7 = getelementptr inbounds i8, ptr %6, i64 32
  %8 = load ptr, ptr %7, align 8
  %.not = icmp eq ptr %8, null
  br i1 %.not, label %10, label %9

9:                                                ; preds = %3
  tail call void %8(ptr noundef %0, ptr noundef nonnull align 8 dereferenceable(16) %5, ptr noundef %2)
  %.pre = load ptr, ptr %1, align 8
  %.phi.trans.insert = getelementptr inbounds i8, ptr %.pre, i64 96
  %.pre7 = load ptr, ptr %.phi.trans.insert, align 8
  br label %10

10:                                               ; preds = %9, %3
  %11 = phi ptr [ %.pre7, %9 ], [ %6, %3 ]
  %12 = phi ptr [ %.pre, %9 ], [ %4, %3 ]
  %13 = getelementptr inbounds i8, ptr %11, i64 12
  %14 = load i32, ptr %13, align 4
  %15 = getelementptr inbounds i8, ptr %12, i64 12
  store i32 %14, ptr %15, align 4
  ret void
}